Certificate:
    Data:
        Version: 3 (0x2)
        Serial Number: 17 (0x11)
    Signature Algorithm: sha256WithRSAEncryption
        Issuer: C=US, ST=WA, L=Bothell, O=passport-sqrl, CN=localhost
        Validity
            Not Before: Nov 10 07:12:58 2017 GMT
            Not After : Nov  8 07:12:58 2027 GMT
        Subject: C=US, ST=WA, L=Bothell, O=passport-sqrl, CN=localhost
        Subject Public Key Info:
            Public Key Algorithm: rsaEncryption
                Public-Key: (3072 bit)
                Modulus:
                    00:9e:1f:9e:eb:27:33:b9:59:86:45:43:7d:11:ba:
                    74:62:5d:bf:f5:fb:e5:71:df:a1:b8:b6:17:75:d0:
                    fc:a1:81:35:0e:f8:70:e8:21:39:10:c7:03:ba:b7:
                    bf:ba:11:75:97:0e:d4:04:b4:2c:e6:24:c8:8e:3a:
                    45:a1:47:80:a8:fe:6e:75:07:dd:ab:c3:b5:2c:b6:
                    9d:d2:14:99:22:b1:f2:15:1b:90:c8:5a:d6:d0:71:
                    1d:c9:3b:a1:a7:3e:99:b6:c2:2c:ec:80:a4:95:7f:
                    d9:9a:90:8f:64:da:d1:98:55:39:ee:ef:74:d5:90:
                    a7:1b:46:49:eb:64:2c:17:cd:e6:c4:50:81:04:36:
                    04:ee:eb:fc:68:d5:ca:67:f1:f0:7d:98:73:c3:e4:
                    c6:ee:0d:30:b2:a4:af:44:ec:42:08:21:3e:2f:b5:
                    12:78:d3:5c:90:00:60:e2:27:df:4a:5d:99:13:84:
                    47:53:a0:15:97:b2:f0:36:d9:97:05:6e:a4:55:df:
                    90:c6:41:9c:a7:0b:8f:6c:bf:84:a3:78:a6:7e:b0:
                    f4:56:0f:dd:5e:74:63:b4:49:6c:82:27:2e:58:6f:
                    c2:16:be:84:5e:8b:70:30:db:a5:3d:f4:42:82:b6:
                    eb:d9:10:ab:61:7a:ac:90:f6:24:75:3a:a3:c4:c5:
                    cd:13:3f:c8:93:91:13:6b:64:4a:3f:2d:9f:8e:06:
                    49:16:3a:f8:ba:1a:8d:d7:64:89:ff:82:62:52:c2:
                    81:6a:88:5a:ba:31:3e:19:13:44:60:49:e4:29:ce:
                    bb:1f:e6:22:68:7e:b6:f1:50:9e:3e:99:07:59:4e:
                    4d:b5:93:ba:6d:b5:45:30:98:6c:46:c8:8f:b5:b4:
                    99:f8:26:f8:f2:55:e9:e6:ca:17:a8:fb:0b:bf:25:
                    7b:5b:13:b6:fe:c9:f5:30:72:aa:e6:14:85:9f:ab:
                    ae:9d:a3:18:82:66:2a:7b:5b:9d:3c:c5:5f:56:ea:
                    4f:4d:4e:20:8f:01:7a:34:aa:7d
                Exponent: 65537 (0x10001)
        X509v3 extensions:
            X509v3 Subject Key Identifier: 
                7B:8F:83:00:78:BA:9D:D7:1A:8D:AB:FA:47:D9:87:74:C7:07:E6:B3
            X509v3 Authority Key Identifier: 
                keyid:F2:D3:D5:32:D2:24:99:4F:92:4D:47:D7:57:3D:4E:AD:4A:48:7A:C7

            X509v3 Basic Constraints: critical
                CA:TRUE, pathlen:0
            X509v3 Key Usage: critical
                Digital Signature, Certificate Sign, CRL Sign
    Signature Algorithm: sha256WithRSAEncryption
         50:9d:a1:21:7a:1f:a0:a2:cb:ba:40:59:61:2c:d3:27:3d:df:
         b5:2b:de:cf:e7:91:ab:cf:7c:b4:5a:a8:72:58:79:c8:0b:3e:
         49:7e:fd:f5:ad:d1:d9:af:54:31:34:4c:48:15:76:f7:44:ea:
         03:29:a2:f7:d8:62:6c:d3:dd:bc:c6:0a:5f:b2:bf:a8:c8:c0:
         7a:aa:e4:ba:c5:d2:38:9f:93:45:28:37:58:1f:c8:4d:47:76:
         bb:78:dd:21:02:bd:14:36:11:87:54:57:fb:8b:d9:bb:46:0d:
         1d:dd:82:a9:eb:4e:0e:67:e5:29:ac:36:d4:26:26:f4:ee:08:
         af:a9:32:e6:99:09:32:e9:5a:13:5f:27:30:0c:34:b6:4f:23:
         97:8a:f5:32:a6:1b:1c:12:03:d5:36:70:b8:82:6b:25:8c:fd:
         21:8f:0f:87:d4:02:3a:d5:18:c6:6c:0e:53:ca:4f:4c:80:99:
         22:12:36:f5:c7:17:9b:ab:72:c6:e7:d3:f9:3a:42:81:bf:e9:
         bb:7b:d9:00:48:4f:ac:48:72:dd:6d:00:d3:a7:8e:f6:73:0b:
         74:8e:12:67:5a:8b:59:e2:fe:83:6d:f0:db:cc:51:3e:ae:f6:
         6a:7d:51:6a:ad:f6:a1:cd:62:0b:e3:39:33:8e:f0:b5:98:0e:
         bf:6f:98:aa:6a:79:e9:ff:00:33:96:c5:e5:ac:b0:40:ea:ab:
         bb:41:05:06:1a:bf:24:3d:0c:b1:46:b4:e1:27:79:28:63:1a:
         18:12:6c:23:11:00:57:b0:f7:e2:f9:be:6d:73:db:e5:86:06:
         1b:bb:df:4e:bd:b3:be:7c:85:9d:29:68:c9:c8:f8:a7:1c:ae:
         0d:09:4b:fe:bd:33:09:84:2f:6c:dd:a7:c9:ed:f0:0d:2e:d4:
         01:9f:7c:0d:12:9b:89:7c:a7:8f:85:47:97:d8:b4:25:af:e1:
         60:93:72:dd:87:1e:5a:9f:f7:54:e4:db:6e:4e:7b:2a:ad:d8:
         0e:69:7e:85:6d:e5:3b:37:17:19:4a:40:ea:ca:dd:a5:2f:ad:
         a3:5d:d2:76:ed:ec:07:46:fc:08:47:26:d4:75:ce:43:a2:0a:
         c4:32:75:b3:04:af:e2:ed:72:bb:22:6c:13:ad:8a:77:86:20:
         ce:c2:29:1a:6c:de:c7:88:e5:2b:95:90:70:2a:95:c9:35:4e:
         8e:33:e9:f8:39:5e:48:ba:bf:08:70:7c:5d:ee:c3:6f:74:bb:
         da:f7:23:01:dc:3b:f9:bd:9a:58:5c:10:fc:ac:12:4e:bf:be:
         7e:c6:c1:f4:bd:2c:4c:a5:c0:2c:d2:02:a4:b4:75:ee:d7:55:
         98:46:fc:bd:f9:49:10:f7
-----BEGIN CERTIFICATE-----
MIIFETCCAvmgAwIBAgIBETANBgkqhkiG9w0BAQsFADBYMQswCQYDVQQGEwJVUzEL
MAkGA1UECAwCV0ExEDAOBgNVBAcMB0JvdGhlbGwxFjAUBgNVBAoMDXBhc3Nwb3J0
LXNxcmwxEjAQBgNVBAMMCWxvY2FsaG9zdDAeFw0xNzExMTAwNzEyNThaFw0yNzEx
MDgwNzEyNThaMFgxCzAJBgNVBAYTAlVTMQswCQYDVQQIDAJXQTEQMA4GA1UEBwwH
Qm90aGVsbDEWMBQGA1UECgwNcGFzc3BvcnQtc3FybDESMBAGA1UEAwwJbG9jYWxo
b3N0MIIBojANBgkqhkiG9w0BAQEFAAOCAY8AMIIBigKCAYEAnh+e6yczuVmGRUN9
Ebp0Yl2/9fvlcd+huLYXddD8oYE1Dvhw6CE5EMcDure/uhF1lw7UBLQs5iTIjjpF
oUeAqP5udQfdq8O1LLad0hSZIrHyFRuQyFrW0HEdyTuhpz6ZtsIs7ICklX/ZmpCP
ZNrRmFU57u901ZCnG0ZJ62QsF83mxFCBBDYE7uv8aNXKZ/HwfZhzw+TG7g0wsqSv
ROxCCCE+L7USeNNckABg4iffSl2ZE4RHU6AVl7LwNtmXBW6kVd+QxkGcpwuPbL+E
o3imfrD0Vg/dXnRjtElsgicuWG/CFr6EXotwMNulPfRCgrbr2RCrYXqskPYkdTqj
xMXNEz/Ik5ETa2RKPy2fjgZJFjr4uhqN12SJ/4JiUsKBaohaujE+GRNEYEnkKc67
H+YiaH628VCePpkHWU5NtZO6bbVFMJhsRsiPtbSZ+Cb48lXp5soXqPsLvyV7WxO2
/sn1MHKq5hSFn6uunaMYgmYqe1udPMVfVupPTU4gjwF6NKp9AgMBAAGjZjBkMB0G
A1UdDgQWBBR7j4MAeLqd1xqNq/pH2Yd0xwfmszAfBgNVHSMEGDAWgBTy09Uy0iSZ
T5JNR9dXPU6tSkh6xzASBgNVHRMBAf8ECDAGAQH/AgEAMA4GA1UdDwEB/wQEAwIB
hjANBgkqhkiG9w0BAQsFAAOCAgEAUJ2hIXofoKLLukBZYSzTJz3ftSvez+eRq898
tFqoclh5yAs+SX799a3R2a9UMTRMSBV290TqAymi99hibNPdvMYKX7K/qMjAeqrk
usXSOJ+TRSg3WB/ITUd2u3jdIQK9FDYRh1RX+4vZu0YNHd2CqetODmflKaw21CYm
9O4Ir6ky5pkJMulaE18nMAw0tk8jl4r1MqYbHBID1TZwuIJrJYz9IY8Ph9QCOtUY
xmwOU8pPTICZIhI29ccXm6tyxufT+TpCgb/pu3vZAEhPrEhy3W0A06eO9nMLdI4S
Z1qLWeL+g23w28xRPq72an1Raq32oc1iC+M5M47wtZgOv2+Yqmp56f8AM5bF5ayw
QOqru0EFBhq/JD0MsUa04Sd5KGMaGBJsIxEAV7D34vm+bXPb5YYGG7vfTr2zvnyF
nSloycj4pxyuDQlL/r0zCYQvbN2nye3wDS7UAZ98DRKbiXynj4VHl9i0Ja/hYJNy
3YceWp/3VOTbbk57Kq3YDml+hW3lOzcXGUpA6srdpS+to13Sdu3sB0b8CEcm1HXO
Q6IKxDJ1swSv4u1yuyJsE62Kd4YgzsIpGmzex4jlK5WQcCqVyTVOjjPp+DleSLq/
CHB8Xe7Db3S72vcjAdw7+b2aWFwQ/KwSTr++fsbB9L0sTKXALNICpLR17tdVmEb8
vflJEPc=
-----END CERTIFICATE-----
