Certificate:
    Data:
        Version: 3 (0x2)
        Serial Number: 18 (0x12)
    Signature Algorithm: sha256WithRSAEncryption
        Issuer: C=US, ST=WA, L=Bothell, O=passport-sqrl, CN=localhost
        Validity
            Not Before: Nov 10 07:28:18 2017 GMT
            Not After : Nov  8 07:28:18 2027 GMT
        Subject: C=US, ST=WA, L=Bothell, O=passport-sqrl, CN=localhost
        Subject Public Key Info:
            Public Key Algorithm: rsaEncryption
                Public-Key: (2048 bit)
                Modulus:
                    00:c1:d9:c7:46:70:46:06:0d:8e:51:bc:48:c2:3c:
                    bb:8f:ad:31:b2:58:cc:53:8c:11:80:88:50:de:83:
                    75:08:3d:93:bd:8a:7b:17:58:b5:73:bb:eb:57:9d:
                    d9:64:bd:db:1e:90:e6:a2:c8:5b:68:16:fa:f0:bb:
                    be:fb:82:45:7d:d0:8b:fe:b5:ab:6e:d3:a6:77:8a:
                    de:2f:56:b2:ca:09:7b:ce:f4:af:37:e6:80:89:3d:
                    ad:0e:83:40:2d:88:24:55:db:92:56:55:0c:ce:80:
                    ac:d8:46:2b:02:fb:91:5b:31:b1:13:a8:61:61:84:
                    51:c5:94:8a:9d:22:b2:01:f3:2c:b1:be:8b:8c:29:
                    62:3a:ca:51:7c:29:1f:d8:e4:e1:ce:31:51:ec:1d:
                    af:32:1e:21:08:ab:1f:1a:67:b9:41:f3:da:32:24:
                    bb:28:37:d3:b6:66:73:53:29:7f:79:c4:80:a8:e3:
                    27:5f:d2:67:c6:25:7b:8f:c5:74:37:ac:ab:11:38:
                    57:f1:14:72:9c:26:09:c5:3f:f4:2d:2e:a2:ef:49:
                    9f:b2:b7:ac:b5:fb:de:dc:7b:83:17:2a:1c:7d:92:
                    3b:1e:4e:6d:2f:7c:3a:c8:d1:99:1f:b0:a9:a3:d5:
                    1e:1e:5d:f5:40:d1:58:e1:34:7d:a1:f2:bf:0e:4c:
                    71:17
                Exponent: 65537 (0x10001)
        X509v3 extensions:
            X509v3 Key Usage: 
                Key Encipherment, Data Encipherment
            X509v3 Extended Key Usage: 
                TLS Web Server Authentication
            X509v3 Subject Alternative Name: 
                DNS:localhost, DNS:127.0.0.1, DNS:::1, DNS:10.0.0.30
            X509v3 Basic Constraints: 
                CA:FALSE
            X509v3 Subject Key Identifier: 
                3B:68:83:AE:AE:5F:B0:66:18:4C:5E:59:3F:9D:6C:6F:B9:AF:54:D4
            X509v3 Authority Key Identifier: 
                keyid:7B:8F:83:00:78:BA:9D:D7:1A:8D:AB:FA:47:D9:87:74:C7:07:E6:B3

    Signature Algorithm: sha256WithRSAEncryption
         2b:1f:e6:81:55:21:d2:da:36:30:3b:0d:d4:6e:65:28:45:c2:
         75:76:06:f9:23:52:66:03:a2:bf:bc:6c:f8:6d:6f:e9:1d:e5:
         f1:4a:79:a3:f1:63:27:64:78:55:8f:fd:c9:19:12:a5:92:b3:
         68:57:3f:7a:3f:dd:37:68:5a:f0:0b:a6:bb:ad:69:ce:b8:00:
         f3:62:54:47:83:1d:09:2a:7e:5c:0d:27:cf:f3:2c:00:f5:82:
         ab:ce:a5:9b:92:22:41:b0:c3:4e:80:8a:8e:56:ed:fb:9a:f4:
         01:ad:7b:9f:9a:eb:2b:99:c3:27:ac:13:52:85:1c:32:44:78:
         10:6d:f2:4a:72:18:0e:cf:64:b9:50:aa:76:65:f2:7d:0d:83:
         87:ce:32:17:5b:22:bc:06:8b:35:2d:52:7b:73:69:bb:b5:29:
         64:d1:18:d0:96:75:a9:23:a3:bb:b7:da:0d:b9:82:17:3d:33:
         33:bf:e7:bc:85:04:10:fc:8a:2c:46:18:20:70:88:eb:15:cc:
         3b:67:e4:5b:f9:ab:61:13:de:3a:16:67:0a:fb:4e:f8:0a:b8:
         70:4e:e3:38:2d:2d:23:94:a8:49:2c:87:89:66:37:5c:70:07:
         68:cf:0a:b4:15:f3:ff:8c:2a:55:42:79:0c:da:9a:b5:87:cb:
         b6:ed:07:b8:92:07:f3:65:a5:61:72:ee:0a:e2:f4:44:95:2f:
         bb:35:81:59:40:fd:04:42:5a:6c:15:2a:73:0d:05:98:f9:f1:
         75:55:9c:70:44:07:3f:7c:17:80:6f:07:98:c6:5a:05:aa:c1:
         3d:27:54:a3:58:80:5a:e9:9e:73:d4:fd:fd:7f:7a:46:2b:26:
         8a:53:39:22:c3:36:d9:e3:17:cc:0d:06:d5:b4:d7:e9:0e:7f:
         e0:aa:a2:4d:c7:89:05:92:14:67:91:25:67:f4:61:1f:a3:51:
         bf:4c:dc:06:19:80:a9:e6:3b:f1:0a:b0:47:01:bc:1a:c1:b0:
         3e:fe:e1:52:48:44
-----BEGIN CERTIFICATE-----
MIIETTCCArWgAwIBAgIBEjANBgkqhkiG9w0BAQsFADBYMQswCQYDVQQGEwJVUzEL
MAkGA1UECAwCV0ExEDAOBgNVBAcMB0JvdGhlbGwxFjAUBgNVBAoMDXBhc3Nwb3J0
LXNxcmwxEjAQBgNVBAMMCWxvY2FsaG9zdDAeFw0xNzExMTAwNzI4MThaFw0yNzEx
MDgwNzI4MThaMFgxCzAJBgNVBAYTAlVTMQswCQYDVQQIDAJXQTEQMA4GA1UEBwwH
Qm90aGVsbDEWMBQGA1UECgwNcGFzc3BvcnQtc3FybDESMBAGA1UEAwwJbG9jYWxo
b3N0MIIBIjANBgkqhkiG9w0BAQEFAAOCAQ8AMIIBCgKCAQEAwdnHRnBGBg2OUbxI
wjy7j60xsljMU4wRgIhQ3oN1CD2TvYp7F1i1c7vrV53ZZL3bHpDmoshbaBb68Lu+
+4JFfdCL/rWrbtOmd4reL1ayygl7zvSvN+aAiT2tDoNALYgkVduSVlUMzoCs2EYr
AvuRWzGxE6hhYYRRxZSKnSKyAfMssb6LjCliOspRfCkf2OThzjFR7B2vMh4hCKsf
Gme5QfPaMiS7KDfTtmZzUyl/ecSAqOMnX9JnxiV7j8V0N6yrEThX8RRynCYJxT/0
LS6i70mfsrestfve3HuDFyocfZI7Hk5tL3w6yNGZH7Cpo9UeHl31QNFY4TR9ofK/
DkxxFwIDAQABo4GhMIGeMAsGA1UdDwQEAwIEMDATBgNVHSUEDDAKBggrBgEFBQcD
ATAvBgNVHREEKDAmgglsb2NhbGhvc3SCCTEyNy4wLjAuMYIDOjoxggkxMC4wLjAu
MzAwCQYDVR0TBAIwADAdBgNVHQ4EFgQUO2iDrq5fsGYYTF5ZP51sb7mvVNQwHwYD
VR0jBBgwFoAUe4+DAHi6ndcajav6R9mHdMcH5rMwDQYJKoZIhvcNAQELBQADggGB
ACsf5oFVIdLaNjA7DdRuZShFwnV2BvkjUmYDor+8bPhtb+kd5fFKeaPxYydkeFWP
/ckZEqWSs2hXP3o/3TdoWvALprutac64APNiVEeDHQkqflwNJ8/zLAD1gqvOpZuS
IkGww06Aio5W7fua9AGte5+a6yuZwyesE1KFHDJEeBBt8kpyGA7PZLlQqnZl8n0N
g4fOMhdbIrwGizUtUntzabu1KWTRGNCWdakjo7u32g25ghc9MzO/57yFBBD8iixG
GCBwiOsVzDtn5Fv5q2ET3joWZwr7TvgKuHBO4zgtLSOUqEksh4lmN1xwB2jPCrQV
8/+MKlVCeQzamrWHy7btB7iSB/NlpWFy7gri9ESVL7s1gVlA/QRCWmwVKnMNBZj5
8XVVnHBEBz98F4BvB5jGWgWqwT0nVKNYgFrpnnPU/f1/ekYrJopTOSLDNtnjF8wN
BtW01+kOf+Cqok3HiQWSFGeRJWf0YR+jUb9M3AYZgKnmO/EKsEcBvBrBsD7+4VJI
RA==
-----END CERTIFICATE-----
Certificate:
    Data:
        Version: 3 (0x2)
        Serial Number: 17 (0x11)
    Signature Algorithm: sha256WithRSAEncryption
        Issuer: C=US, ST=WA, L=Bothell, O=passport-sqrl, CN=localhost
        Validity
            Not Before: Nov 10 07:12:58 2017 GMT
            Not After : Nov  8 07:12:58 2027 GMT
        Subject: C=US, ST=WA, L=Bothell, O=passport-sqrl, CN=localhost
        Subject Public Key Info:
            Public Key Algorithm: rsaEncryption
                Public-Key: (3072 bit)
                Modulus:
                    00:9e:1f:9e:eb:27:33:b9:59:86:45:43:7d:11:ba:
                    74:62:5d:bf:f5:fb:e5:71:df:a1:b8:b6:17:75:d0:
                    fc:a1:81:35:0e:f8:70:e8:21:39:10:c7:03:ba:b7:
                    bf:ba:11:75:97:0e:d4:04:b4:2c:e6:24:c8:8e:3a:
                    45:a1:47:80:a8:fe:6e:75:07:dd:ab:c3:b5:2c:b6:
                    9d:d2:14:99:22:b1:f2:15:1b:90:c8:5a:d6:d0:71:
                    1d:c9:3b:a1:a7:3e:99:b6:c2:2c:ec:80:a4:95:7f:
                    d9:9a:90:8f:64:da:d1:98:55:39:ee:ef:74:d5:90:
                    a7:1b:46:49:eb:64:2c:17:cd:e6:c4:50:81:04:36:
                    04:ee:eb:fc:68:d5:ca:67:f1:f0:7d:98:73:c3:e4:
                    c6:ee:0d:30:b2:a4:af:44:ec:42:08:21:3e:2f:b5:
                    12:78:d3:5c:90:00:60:e2:27:df:4a:5d:99:13:84:
                    47:53:a0:15:97:b2:f0:36:d9:97:05:6e:a4:55:df:
                    90:c6:41:9c:a7:0b:8f:6c:bf:84:a3:78:a6:7e:b0:
                    f4:56:0f:dd:5e:74:63:b4:49:6c:82:27:2e:58:6f:
                    c2:16:be:84:5e:8b:70:30:db:a5:3d:f4:42:82:b6:
                    eb:d9:10:ab:61:7a:ac:90:f6:24:75:3a:a3:c4:c5:
                    cd:13:3f:c8:93:91:13:6b:64:4a:3f:2d:9f:8e:06:
                    49:16:3a:f8:ba:1a:8d:d7:64:89:ff:82:62:52:c2:
                    81:6a:88:5a:ba:31:3e:19:13:44:60:49:e4:29:ce:
                    bb:1f:e6:22:68:7e:b6:f1:50:9e:3e:99:07:59:4e:
                    4d:b5:93:ba:6d:b5:45:30:98:6c:46:c8:8f:b5:b4:
                    99:f8:26:f8:f2:55:e9:e6:ca:17:a8:fb:0b:bf:25:
                    7b:5b:13:b6:fe:c9:f5:30:72:aa:e6:14:85:9f:ab:
                    ae:9d:a3:18:82:66:2a:7b:5b:9d:3c:c5:5f:56:ea:
                    4f:4d:4e:20:8f:01:7a:34:aa:7d
                Exponent: 65537 (0x10001)
        X509v3 extensions:
            X509v3 Subject Key Identifier: 
                7B:8F:83:00:78:BA:9D:D7:1A:8D:AB:FA:47:D9:87:74:C7:07:E6:B3
            X509v3 Authority Key Identifier: 
                keyid:F2:D3:D5:32:D2:24:99:4F:92:4D:47:D7:57:3D:4E:AD:4A:48:7A:C7

            X509v3 Basic Constraints: critical
                CA:TRUE, pathlen:0
            X509v3 Key Usage: critical
                Digital Signature, Certificate Sign, CRL Sign
    Signature Algorithm: sha256WithRSAEncryption
         50:9d:a1:21:7a:1f:a0:a2:cb:ba:40:59:61:2c:d3:27:3d:df:
         b5:2b:de:cf:e7:91:ab:cf:7c:b4:5a:a8:72:58:79:c8:0b:3e:
         49:7e:fd:f5:ad:d1:d9:af:54:31:34:4c:48:15:76:f7:44:ea:
         03:29:a2:f7:d8:62:6c:d3:dd:bc:c6:0a:5f:b2:bf:a8:c8:c0:
         7a:aa:e4:ba:c5:d2:38:9f:93:45:28:37:58:1f:c8:4d:47:76:
         bb:78:dd:21:02:bd:14:36:11:87:54:57:fb:8b:d9:bb:46:0d:
         1d:dd:82:a9:eb:4e:0e:67:e5:29:ac:36:d4:26:26:f4:ee:08:
         af:a9:32:e6:99:09:32:e9:5a:13:5f:27:30:0c:34:b6:4f:23:
         97:8a:f5:32:a6:1b:1c:12:03:d5:36:70:b8:82:6b:25:8c:fd:
         21:8f:0f:87:d4:02:3a:d5:18:c6:6c:0e:53:ca:4f:4c:80:99:
         22:12:36:f5:c7:17:9b:ab:72:c6:e7:d3:f9:3a:42:81:bf:e9:
         bb:7b:d9:00:48:4f:ac:48:72:dd:6d:00:d3:a7:8e:f6:73:0b:
         74:8e:12:67:5a:8b:59:e2:fe:83:6d:f0:db:cc:51:3e:ae:f6:
         6a:7d:51:6a:ad:f6:a1:cd:62:0b:e3:39:33:8e:f0:b5:98:0e:
         bf:6f:98:aa:6a:79:e9:ff:00:33:96:c5:e5:ac:b0:40:ea:ab:
         bb:41:05:06:1a:bf:24:3d:0c:b1:46:b4:e1:27:79:28:63:1a:
         18:12:6c:23:11:00:57:b0:f7:e2:f9:be:6d:73:db:e5:86:06:
         1b:bb:df:4e:bd:b3:be:7c:85:9d:29:68:c9:c8:f8:a7:1c:ae:
         0d:09:4b:fe:bd:33:09:84:2f:6c:dd:a7:c9:ed:f0:0d:2e:d4:
         01:9f:7c:0d:12:9b:89:7c:a7:8f:85:47:97:d8:b4:25:af:e1:
         60:93:72:dd:87:1e:5a:9f:f7:54:e4:db:6e:4e:7b:2a:ad:d8:
         0e:69:7e:85:6d:e5:3b:37:17:19:4a:40:ea:ca:dd:a5:2f:ad:
         a3:5d:d2:76:ed:ec:07:46:fc:08:47:26:d4:75:ce:43:a2:0a:
         c4:32:75:b3:04:af:e2:ed:72:bb:22:6c:13:ad:8a:77:86:20:
         ce:c2:29:1a:6c:de:c7:88:e5:2b:95:90:70:2a:95:c9:35:4e:
         8e:33:e9:f8:39:5e:48:ba:bf:08:70:7c:5d:ee:c3:6f:74:bb:
         da:f7:23:01:dc:3b:f9:bd:9a:58:5c:10:fc:ac:12:4e:bf:be:
         7e:c6:c1:f4:bd:2c:4c:a5:c0:2c:d2:02:a4:b4:75:ee:d7:55:
         98:46:fc:bd:f9:49:10:f7
-----BEGIN CERTIFICATE-----
MIIFETCCAvmgAwIBAgIBETANBgkqhkiG9w0BAQsFADBYMQswCQYDVQQGEwJVUzEL
MAkGA1UECAwCV0ExEDAOBgNVBAcMB0JvdGhlbGwxFjAUBgNVBAoMDXBhc3Nwb3J0
LXNxcmwxEjAQBgNVBAMMCWxvY2FsaG9zdDAeFw0xNzExMTAwNzEyNThaFw0yNzEx
MDgwNzEyNThaMFgxCzAJBgNVBAYTAlVTMQswCQYDVQQIDAJXQTEQMA4GA1UEBwwH
Qm90aGVsbDEWMBQGA1UECgwNcGFzc3BvcnQtc3FybDESMBAGA1UEAwwJbG9jYWxo
b3N0MIIBojANBgkqhkiG9w0BAQEFAAOCAY8AMIIBigKCAYEAnh+e6yczuVmGRUN9
Ebp0Yl2/9fvlcd+huLYXddD8oYE1Dvhw6CE5EMcDure/uhF1lw7UBLQs5iTIjjpF
oUeAqP5udQfdq8O1LLad0hSZIrHyFRuQyFrW0HEdyTuhpz6ZtsIs7ICklX/ZmpCP
ZNrRmFU57u901ZCnG0ZJ62QsF83mxFCBBDYE7uv8aNXKZ/HwfZhzw+TG7g0wsqSv
ROxCCCE+L7USeNNckABg4iffSl2ZE4RHU6AVl7LwNtmXBW6kVd+QxkGcpwuPbL+E
o3imfrD0Vg/dXnRjtElsgicuWG/CFr6EXotwMNulPfRCgrbr2RCrYXqskPYkdTqj
xMXNEz/Ik5ETa2RKPy2fjgZJFjr4uhqN12SJ/4JiUsKBaohaujE+GRNEYEnkKc67
H+YiaH628VCePpkHWU5NtZO6bbVFMJhsRsiPtbSZ+Cb48lXp5soXqPsLvyV7WxO2
/sn1MHKq5hSFn6uunaMYgmYqe1udPMVfVupPTU4gjwF6NKp9AgMBAAGjZjBkMB0G
A1UdDgQWBBR7j4MAeLqd1xqNq/pH2Yd0xwfmszAfBgNVHSMEGDAWgBTy09Uy0iSZ
T5JNR9dXPU6tSkh6xzASBgNVHRMBAf8ECDAGAQH/AgEAMA4GA1UdDwEB/wQEAwIB
hjANBgkqhkiG9w0BAQsFAAOCAgEAUJ2hIXofoKLLukBZYSzTJz3ftSvez+eRq898
tFqoclh5yAs+SX799a3R2a9UMTRMSBV290TqAymi99hibNPdvMYKX7K/qMjAeqrk
usXSOJ+TRSg3WB/ITUd2u3jdIQK9FDYRh1RX+4vZu0YNHd2CqetODmflKaw21CYm
9O4Ir6ky5pkJMulaE18nMAw0tk8jl4r1MqYbHBID1TZwuIJrJYz9IY8Ph9QCOtUY
xmwOU8pPTICZIhI29ccXm6tyxufT+TpCgb/pu3vZAEhPrEhy3W0A06eO9nMLdI4S
Z1qLWeL+g23w28xRPq72an1Raq32oc1iC+M5M47wtZgOv2+Yqmp56f8AM5bF5ayw
QOqru0EFBhq/JD0MsUa04Sd5KGMaGBJsIxEAV7D34vm+bXPb5YYGG7vfTr2zvnyF
nSloycj4pxyuDQlL/r0zCYQvbN2nye3wDS7UAZ98DRKbiXynj4VHl9i0Ja/hYJNy
3YceWp/3VOTbbk57Kq3YDml+hW3lOzcXGUpA6srdpS+to13Sdu3sB0b8CEcm1HXO
Q6IKxDJ1swSv4u1yuyJsE62Kd4YgzsIpGmzex4jlK5WQcCqVyTVOjjPp+DleSLq/
CHB8Xe7Db3S72vcjAdw7+b2aWFwQ/KwSTr++fsbB9L0sTKXALNICpLR17tdVmEb8
vflJEPc=
-----END CERTIFICATE-----
