Certificate:
    Data:
        Version: 3 (0x2)
        Serial Number: 18 (0x12)
    Signature Algorithm: sha256WithRSAEncryption
        Issuer: C=US, ST=WA, L=Bothell, O=passport-sqrl, CN=localhost
        Validity
            Not Before: Nov 10 07:28:18 2017 GMT
            Not After : Nov  8 07:28:18 2027 GMT
        Subject: C=US, ST=WA, L=Bothell, O=passport-sqrl, CN=localhost
        Subject Public Key Info:
            Public Key Algorithm: rsaEncryption
                Public-Key: (2048 bit)
                Modulus:
                    00:c1:d9:c7:46:70:46:06:0d:8e:51:bc:48:c2:3c:
                    bb:8f:ad:31:b2:58:cc:53:8c:11:80:88:50:de:83:
                    75:08:3d:93:bd:8a:7b:17:58:b5:73:bb:eb:57:9d:
                    d9:64:bd:db:1e:90:e6:a2:c8:5b:68:16:fa:f0:bb:
                    be:fb:82:45:7d:d0:8b:fe:b5:ab:6e:d3:a6:77:8a:
                    de:2f:56:b2:ca:09:7b:ce:f4:af:37:e6:80:89:3d:
                    ad:0e:83:40:2d:88:24:55:db:92:56:55:0c:ce:80:
                    ac:d8:46:2b:02:fb:91:5b:31:b1:13:a8:61:61:84:
                    51:c5:94:8a:9d:22:b2:01:f3:2c:b1:be:8b:8c:29:
                    62:3a:ca:51:7c:29:1f:d8:e4:e1:ce:31:51:ec:1d:
                    af:32:1e:21:08:ab:1f:1a:67:b9:41:f3:da:32:24:
                    bb:28:37:d3:b6:66:73:53:29:7f:79:c4:80:a8:e3:
                    27:5f:d2:67:c6:25:7b:8f:c5:74:37:ac:ab:11:38:
                    57:f1:14:72:9c:26:09:c5:3f:f4:2d:2e:a2:ef:49:
                    9f:b2:b7:ac:b5:fb:de:dc:7b:83:17:2a:1c:7d:92:
                    3b:1e:4e:6d:2f:7c:3a:c8:d1:99:1f:b0:a9:a3:d5:
                    1e:1e:5d:f5:40:d1:58:e1:34:7d:a1:f2:bf:0e:4c:
                    71:17
                Exponent: 65537 (0x10001)
        X509v3 extensions:
            X509v3 Key Usage: 
                Key Encipherment, Data Encipherment
            X509v3 Extended Key Usage: 
                TLS Web Server Authentication
            X509v3 Subject Alternative Name: 
                DNS:localhost, DNS:127.0.0.1, DNS:::1, DNS:10.0.0.30
            X509v3 Basic Constraints: 
                CA:FALSE
            X509v3 Subject Key Identifier: 
                3B:68:83:AE:AE:5F:B0:66:18:4C:5E:59:3F:9D:6C:6F:B9:AF:54:D4
            X509v3 Authority Key Identifier: 
                keyid:7B:8F:83:00:78:BA:9D:D7:1A:8D:AB:FA:47:D9:87:74:C7:07:E6:B3

    Signature Algorithm: sha256WithRSAEncryption
         2b:1f:e6:81:55:21:d2:da:36:30:3b:0d:d4:6e:65:28:45:c2:
         75:76:06:f9:23:52:66:03:a2:bf:bc:6c:f8:6d:6f:e9:1d:e5:
         f1:4a:79:a3:f1:63:27:64:78:55:8f:fd:c9:19:12:a5:92:b3:
         68:57:3f:7a:3f:dd:37:68:5a:f0:0b:a6:bb:ad:69:ce:b8:00:
         f3:62:54:47:83:1d:09:2a:7e:5c:0d:27:cf:f3:2c:00:f5:82:
         ab:ce:a5:9b:92:22:41:b0:c3:4e:80:8a:8e:56:ed:fb:9a:f4:
         01:ad:7b:9f:9a:eb:2b:99:c3:27:ac:13:52:85:1c:32:44:78:
         10:6d:f2:4a:72:18:0e:cf:64:b9:50:aa:76:65:f2:7d:0d:83:
         87:ce:32:17:5b:22:bc:06:8b:35:2d:52:7b:73:69:bb:b5:29:
         64:d1:18:d0:96:75:a9:23:a3:bb:b7:da:0d:b9:82:17:3d:33:
         33:bf:e7:bc:85:04:10:fc:8a:2c:46:18:20:70:88:eb:15:cc:
         3b:67:e4:5b:f9:ab:61:13:de:3a:16:67:0a:fb:4e:f8:0a:b8:
         70:4e:e3:38:2d:2d:23:94:a8:49:2c:87:89:66:37:5c:70:07:
         68:cf:0a:b4:15:f3:ff:8c:2a:55:42:79:0c:da:9a:b5:87:cb:
         b6:ed:07:b8:92:07:f3:65:a5:61:72:ee:0a:e2:f4:44:95:2f:
         bb:35:81:59:40:fd:04:42:5a:6c:15:2a:73:0d:05:98:f9:f1:
         75:55:9c:70:44:07:3f:7c:17:80:6f:07:98:c6:5a:05:aa:c1:
         3d:27:54:a3:58:80:5a:e9:9e:73:d4:fd:fd:7f:7a:46:2b:26:
         8a:53:39:22:c3:36:d9:e3:17:cc:0d:06:d5:b4:d7:e9:0e:7f:
         e0:aa:a2:4d:c7:89:05:92:14:67:91:25:67:f4:61:1f:a3:51:
         bf:4c:dc:06:19:80:a9:e6:3b:f1:0a:b0:47:01:bc:1a:c1:b0:
         3e:fe:e1:52:48:44
-----BEGIN CERTIFICATE-----
MIIETTCCArWgAwIBAgIBEjANBgkqhkiG9w0BAQsFADBYMQswCQYDVQQGEwJVUzEL
MAkGA1UECAwCV0ExEDAOBgNVBAcMB0JvdGhlbGwxFjAUBgNVBAoMDXBhc3Nwb3J0
LXNxcmwxEjAQBgNVBAMMCWxvY2FsaG9zdDAeFw0xNzExMTAwNzI4MThaFw0yNzEx
MDgwNzI4MThaMFgxCzAJBgNVBAYTAlVTMQswCQYDVQQIDAJXQTEQMA4GA1UEBwwH
Qm90aGVsbDEWMBQGA1UECgwNcGFzc3BvcnQtc3FybDESMBAGA1UEAwwJbG9jYWxo
b3N0MIIBIjANBgkqhkiG9w0BAQEFAAOCAQ8AMIIBCgKCAQEAwdnHRnBGBg2OUbxI
wjy7j60xsljMU4wRgIhQ3oN1CD2TvYp7F1i1c7vrV53ZZL3bHpDmoshbaBb68Lu+
+4JFfdCL/rWrbtOmd4reL1ayygl7zvSvN+aAiT2tDoNALYgkVduSVlUMzoCs2EYr
AvuRWzGxE6hhYYRRxZSKnSKyAfMssb6LjCliOspRfCkf2OThzjFR7B2vMh4hCKsf
Gme5QfPaMiS7KDfTtmZzUyl/ecSAqOMnX9JnxiV7j8V0N6yrEThX8RRynCYJxT/0
LS6i70mfsrestfve3HuDFyocfZI7Hk5tL3w6yNGZH7Cpo9UeHl31QNFY4TR9ofK/
DkxxFwIDAQABo4GhMIGeMAsGA1UdDwQEAwIEMDATBgNVHSUEDDAKBggrBgEFBQcD
ATAvBgNVHREEKDAmgglsb2NhbGhvc3SCCTEyNy4wLjAuMYIDOjoxggkxMC4wLjAu
MzAwCQYDVR0TBAIwADAdBgNVHQ4EFgQUO2iDrq5fsGYYTF5ZP51sb7mvVNQwHwYD
VR0jBBgwFoAUe4+DAHi6ndcajav6R9mHdMcH5rMwDQYJKoZIhvcNAQELBQADggGB
ACsf5oFVIdLaNjA7DdRuZShFwnV2BvkjUmYDor+8bPhtb+kd5fFKeaPxYydkeFWP
/ckZEqWSs2hXP3o/3TdoWvALprutac64APNiVEeDHQkqflwNJ8/zLAD1gqvOpZuS
IkGww06Aio5W7fua9AGte5+a6yuZwyesE1KFHDJEeBBt8kpyGA7PZLlQqnZl8n0N
g4fOMhdbIrwGizUtUntzabu1KWTRGNCWdakjo7u32g25ghc9MzO/57yFBBD8iixG
GCBwiOsVzDtn5Fv5q2ET3joWZwr7TvgKuHBO4zgtLSOUqEksh4lmN1xwB2jPCrQV
8/+MKlVCeQzamrWHy7btB7iSB/NlpWFy7gri9ESVL7s1gVlA/QRCWmwVKnMNBZj5
8XVVnHBEBz98F4BvB5jGWgWqwT0nVKNYgFrpnnPU/f1/ekYrJopTOSLDNtnjF8wN
BtW01+kOf+Cqok3HiQWSFGeRJWf0YR+jUb9M3AYZgKnmO/EKsEcBvBrBsD7+4VJI
RA==
-----END CERTIFICATE-----
